target datalayout = "e-m:e-p270:32:32-p271:32:32-p272:64:64-i64:64-i128:128-f80:128-n8:16:32:64-S128"
target triple = "x86_64-pc-linux-gnu"

%"class.llvm::cl::opt" = type { %"class.llvm::cl::Option", %"class.llvm::cl::opt_storage", %"class.llvm::cl::parser", %"class.std::function" }
%"class.llvm::cl::Option" = type { ptr, i16, i16, i16, i16, %"class.llvm::StringRef", %"class.llvm::StringRef", %"class.llvm::StringRef", %"class.llvm::SmallVector", %"class.llvm::SmallPtrSet" }
%"class.llvm::StringRef" = type { ptr, i64 }
%"class.llvm::SmallVector" = type { %"class.llvm::SmallVectorImpl", %"struct.llvm::SmallVectorStorage" }
%"class.llvm::SmallVectorImpl" = type { %"class.llvm::SmallVectorTemplateBase" }
%"class.llvm::SmallVectorTemplateBase" = type { %"class.llvm::SmallVectorTemplateCommon" }
%"class.llvm::SmallVectorTemplateCommon" = type { %"class.llvm::SmallVectorBase" }
%"class.llvm::SmallVectorBase" = type { ptr, i32, i32 }
%"struct.llvm::SmallVectorStorage" = type { [8 x i8] }
%"class.llvm::SmallPtrSet" = type { %"class.llvm::SmallPtrSetImpl.base", [1 x ptr] }
%"class.llvm::SmallPtrSetImpl.base" = type { %"class.llvm::SmallPtrSetImplBase.base" }
%"class.llvm::SmallPtrSetImplBase.base" = type <{ ptr, ptr, i32, i32, i32 }>
%"class.llvm::cl::opt_storage" = type { i8, [7 x i8], %"struct.llvm::cl::OptionValue" }
%"struct.llvm::cl::OptionValue" = type { %"struct.llvm::cl::OptionValueBase.base", [6 x i8] }
%"struct.llvm::cl::OptionValueBase.base" = type { %"class.llvm::cl::OptionValueCopy.base" }
%"class.llvm::cl::OptionValueCopy.base" = type <{ %"struct.llvm::cl::GenericOptionValue", i8, i8 }>
%"struct.llvm::cl::GenericOptionValue" = type { ptr }
%"class.llvm::cl::parser" = type { %"class.llvm::cl::basic_parser" }
%"class.llvm::cl::basic_parser" = type { %"class.llvm::cl::basic_parser_impl" }
%"class.llvm::cl::basic_parser_impl" = type { ptr }
%"class.std::function" = type { %"class.std::_Function_base", ptr }
%"class.std::_Function_base" = type { %"union.std::_Any_data", ptr }
%"union.std::_Any_data" = type { %"union.std::_Nocopy_types" }
%"union.std::_Nocopy_types" = type { { i64, i64 } }
%"class.llvm::sampleprof::SampleProfileReader" = type <{ ptr, %"class.llvm::sampleprof::SampleProfileMap", ptr, %"class.std::unique_ptr", %"class.std::unique_ptr.18", %"class.std::unique_ptr.26", %"class.std::unordered_map.34", %"struct.std::pair", i8, i8, i8, i8, i32, i8, [3 x i8], i32, ptr, i32, i8, i8, [2 x i8] }>
%"class.llvm::sampleprof::SampleProfileMap" = type { %"class.llvm::sampleprof::HashKeyMap" }
%"class.llvm::sampleprof::HashKeyMap" = type { %"class.std::unordered_map" }
%"class.std::unordered_map" = type { %"class.std::_Hashtable" }
%"class.std::_Hashtable" = type { ptr, i64, %"struct.std::__detail::_Hash_node_base", i64, %"struct.std::__detail::_Prime_rehash_policy", ptr }
%"struct.std::__detail::_Hash_node_base" = type { ptr }
%"struct.std::__detail::_Prime_rehash_policy" = type { float, i64 }
%"class.std::unique_ptr" = type { %"struct.std::__uniq_ptr_data" }
%"struct.std::__uniq_ptr_data" = type { %"class.std::__uniq_ptr_impl" }
%"class.std::__uniq_ptr_impl" = type { %"class.std::tuple" }
%"class.std::tuple" = type { %"struct.std::_Tuple_impl" }
%"struct.std::_Tuple_impl" = type { %"struct.std::_Head_base.17" }
%"struct.std::_Head_base.17" = type { ptr }
%"class.std::unique_ptr.18" = type { %"struct.std::__uniq_ptr_data.19" }
%"struct.std::__uniq_ptr_data.19" = type { %"class.std::__uniq_ptr_impl.20" }
%"class.std::__uniq_ptr_impl.20" = type { %"class.std::tuple.21" }
%"class.std::tuple.21" = type { %"struct.std::_Tuple_impl.22" }
%"struct.std::_Tuple_impl.22" = type { %"struct.std::_Head_base.25" }
%"struct.std::_Head_base.25" = type { ptr }
%"class.std::unique_ptr.26" = type { %"struct.std::__uniq_ptr_data.27" }
%"struct.std::__uniq_ptr_data.27" = type { %"class.std::__uniq_ptr_impl.28" }
%"class.std::__uniq_ptr_impl.28" = type { %"class.std::tuple.29" }
%"class.std::tuple.29" = type { %"struct.std::_Tuple_impl.30" }
%"struct.std::_Tuple_impl.30" = type { %"struct.std::_Head_base.33" }
%"struct.std::_Head_base.33" = type { ptr }
%"class.std::unordered_map.34" = type { %"class.std::_Hashtable.35" }
%"class.std::_Hashtable.35" = type { ptr, i64, %"struct.std::__detail::_Hash_node_base", i64, %"struct.std::__detail::_Prime_rehash_policy", ptr }
%"struct.std::pair" = type { ptr, ptr }
%"class.std::error_code" = type { i32, ptr }
%"class.llvm::sampleprof::SampleProfileReader.base" = type <{ ptr, %"class.llvm::sampleprof::SampleProfileMap", ptr, %"class.std::unique_ptr", %"class.std::unique_ptr.18", %"class.std::unique_ptr.26", %"class.std::unordered_map.34", %"struct.std::pair", i8, i8, i8, i8, i32, i8, [3 x i8], i32, ptr, i32, i8, i8 }>
%"class.llvm::sampleprof::SampleProfileReaderBinary" = type { %"class.llvm::sampleprof::SampleProfileReader.base", ptr, ptr, %"class.std::vector.84", %"class.std::vector.89", %"class.std::vector.94", ptr }
%"class.std::vector.84" = type { %"struct.std::_Vector_base.85" }
%"struct.std::_Vector_base.85" = type { %"struct.std::_Vector_base<llvm::sampleprof::FunctionId, std::allocator<llvm::sampleprof::FunctionId>>::_Vector_impl" }
%"struct.std::_Vector_base<llvm::sampleprof::FunctionId, std::allocator<llvm::sampleprof::FunctionId>>::_Vector_impl" = type { %"struct.std::_Vector_base<llvm::sampleprof::FunctionId, std::allocator<llvm::sampleprof::FunctionId>>::_Vector_impl_data" }
%"struct.std::_Vector_base<llvm::sampleprof::FunctionId, std::allocator<llvm::sampleprof::FunctionId>>::_Vector_impl_data" = type { ptr, ptr, ptr }
%"class.std::vector.89" = type { %"struct.std::_Vector_base.90" }
%"struct.std::_Vector_base.90" = type { %"struct.std::_Vector_base<llvm::SmallVector<llvm::sampleprof::SampleContextFrame, 1>, std::allocator<llvm::SmallVector<llvm::sampleprof::SampleContextFrame, 1>>>::_Vector_impl" }
%"struct.std::_Vector_base<llvm::SmallVector<llvm::sampleprof::SampleContextFrame, 1>, std::allocator<llvm::SmallVector<llvm::sampleprof::SampleContextFrame, 1>>>::_Vector_impl" = type { %"struct.std::_Vector_base<llvm::SmallVector<llvm::sampleprof::SampleContextFrame, 1>, std::allocator<llvm::SmallVector<llvm::sampleprof::SampleContextFrame, 1>>>::_Vector_impl_data" }
%"struct.std::_Vector_base<llvm::SmallVector<llvm::sampleprof::SampleContextFrame, 1>, std::allocator<llvm::SmallVector<llvm::sampleprof::SampleContextFrame, 1>>>::_Vector_impl_data" = type { ptr, ptr, ptr }
%"class.std::vector.94" = type { %"struct.std::_Vector_base.95" }
%"struct.std::_Vector_base.95" = type { %"struct.std::_Vector_base<unsigned long, std::allocator<unsigned long>>::_Vector_impl" }
%"struct.std::_Vector_base<unsigned long, std::allocator<unsigned long>>::_Vector_impl" = type { %"struct.std::_Vector_base<unsigned long, std::allocator<unsigned long>>::_Vector_impl_data" }
%"struct.std::_Vector_base<unsigned long, std::allocator<unsigned long>>::_Vector_impl_data" = type { ptr, ptr, ptr }

@_ZL23ProfileIsFSDisciminator = internal global %"class.llvm::cl::opt" zeroinitializer, align 8
@_ZN4llvm10sampleprof15FunctionSamples11ProfileIsFSE = external global i8, align 1

; Function Attrs: mustprogress nounwind uwtable
define linkonce_odr hidden void @_ZNSt10error_codeC2EiRKNSt3_V214error_categoryE(ptr noundef nonnull align 8 dereferenceable(16) %0, i32 noundef %1, ptr noundef nonnull align 8 dereferenceable(8) %2) unnamed_addr #1 comdat align 2 {
  %4 = alloca ptr, align 8
  %5 = alloca i32, align 4
  %6 = alloca ptr, align 8
  store ptr %0, ptr %4, align 8
  store i32 %1, ptr %5, align 4
  store ptr %2, ptr %6, align 8
  %7 = load ptr, ptr %4, align 8
  %8 = getelementptr inbounds nuw %"class.std::error_code", ptr %7, i32 0, i32 0
  %9 = load i32, ptr %5, align 4
  store i32 %9, ptr %8, align 8
  %10 = getelementptr inbounds nuw %"class.std::error_code", ptr %7, i32 0, i32 1
  %11 = load ptr, ptr %6, align 8
  store ptr %11, ptr %10, align 8
  ret void
}

; Function Attrs: mustprogress nounwind uwtable
define linkonce_odr hidden { i32, ptr } @_ZN4llvm15make_error_codeENS_16sampleprof_errorE(i32 noundef %0) #1 comdat {
  %2 = alloca %"class.std::error_code", align 8
  %3 = alloca i32, align 4
  store i32 %0, ptr %3, align 4
  %4 = load i32, ptr %3, align 4
  %5 = call noundef nonnull align 8 dereferenceable(8) ptr @_ZN4llvm19sampleprof_categoryEv()
  call void @_ZNSt10error_codeC2EiRKNSt3_V214error_categoryE(ptr noundef nonnull align 8 dereferenceable(16) %2, i32 noundef %4, ptr noundef nonnull align 8 dereferenceable(8) %5) #2
  %6 = load { i32, ptr }, ptr %2, align 8
  ret { i32, ptr } %6
}

; Function Attrs: mustprogress nounwind uwtable
define linkonce_odr hidden noundef zeroext i1 @_ZNK4llvm2cl11opt_storageIbLb0ELb0EE8getValueEv(ptr noundef nonnull align 8 dereferenceable(24) %0) #1 comdat align 2 {
  %2 = alloca ptr, align 8
  store ptr %0, ptr %2, align 8
  %3 = load ptr, ptr %2, align 8
  %4 = getelementptr inbounds nuw %"class.llvm::cl::opt_storage", ptr %3, i32 0, i32 0
  %5 = load i8, ptr %4, align 8
  %6 = trunc i8 %5 to i1
  ret i1 %6
}

; Function Attrs: mustprogress nounwind uwtable
define linkonce_odr hidden void @_ZNSt10error_codeC2IN4llvm16sampleprof_errorEvEET_(ptr noundef nonnull align 8 dereferenceable(16) %0, i32 noundef %1) unnamed_addr #1 comdat align 2 {
  %3 = alloca ptr, align 8
  %4 = alloca i32, align 4
  %5 = alloca %"class.std::error_code", align 8
  store ptr %0, ptr %3, align 8
  store i32 %1, ptr %4, align 4
  %6 = load ptr, ptr %3, align 8
  %7 = load i32, ptr %4, align 4
  %8 = call { i32, ptr } @_ZN4llvm15make_error_codeENS_16sampleprof_errorE(i32 noundef %7)
  %9 = getelementptr inbounds nuw { i32, ptr }, ptr %5, i32 0, i32 0
  %10 = extractvalue { i32, ptr } %8, 0
  store i32 %10, ptr %9, align 8
  %11 = getelementptr inbounds nuw { i32, ptr }, ptr %5, i32 0, i32 1
  %12 = extractvalue { i32, ptr } %8, 1
  store ptr %12, ptr %11, align 8
  call void @llvm.memcpy.p0.p0.i64(ptr align 8 %6, ptr align 8 %5, i64 16, i1 false)
  ret void
}

; Function Attrs: mustprogress nounwind uwtable
define linkonce_odr hidden noundef zeroext i1 @_ZNKSt10error_codecvbEv(ptr noundef nonnull align 8 dereferenceable(16) %0) #1 comdat align 2 {
  %2 = alloca ptr, align 8
  store ptr %0, ptr %2, align 8
  %3 = load ptr, ptr %2, align 8
  %4 = getelementptr inbounds nuw %"class.std::error_code", ptr %3, i32 0, i32 0
  %5 = load i32, ptr %4, align 8
  %6 = icmp ne i32 %5, 0
  ret i1 %6
}

; Function Attrs: mustprogress nounwind uwtable
define dso_local { i32, ptr } @_ZN4llvm10sampleprof25SampleProfileReaderBinary15readFuncProfileEPKh(ptr noundef nonnull align 8 dereferenceable(296) %0, ptr noundef %1) #1 align 2 {
  %3 = alloca %"class.std::error_code", align 8
  %4 = alloca ptr, align 8
  %5 = alloca ptr, align 8
  store ptr %0, ptr %4, align 8
  store ptr %1, ptr %5, align 8
  %6 = load ptr, ptr %4, align 8
  %7 = load ptr, ptr %5, align 8
  %8 = getelementptr inbounds nuw %"class.llvm::sampleprof::SampleProfileReader", ptr %6, i32 0, i32 1
  %9 = call { i32, ptr } @_ZN4llvm10sampleprof25SampleProfileReaderBinary15readFuncProfileEPKhRNS0_16SampleProfileMapE(ptr noundef nonnull align 8 dereferenceable(296) %6, ptr noundef %7, ptr noundef nonnull align 8 dereferenceable(56) %8)
  %10 = getelementptr inbounds nuw { i32, ptr }, ptr %3, i32 0, i32 0
  %11 = extractvalue { i32, ptr } %9, 0
  store i32 %11, ptr %10, align 8
  %12 = getelementptr inbounds nuw { i32, ptr }, ptr %3, i32 0, i32 1
  %13 = extractvalue { i32, ptr } %9, 1
  store ptr %13, ptr %12, align 8
  %14 = load { i32, ptr }, ptr %3, align 8
  ret { i32, ptr } %14
}

; Function Attrs: mustprogress nounwind uwtable
define linkonce_odr hidden noundef zeroext i1 @_ZNK4llvm2cl11opt_storageIbLb0ELb0EEcvbEv(ptr noundef nonnull align 8 dereferenceable(24) %0) #1 comdat align 2 {
  %2 = alloca ptr, align 8
  store ptr %0, ptr %2, align 8
  %3 = load ptr, ptr %2, align 8
  %4 = call noundef zeroext i1 @_ZNK4llvm2cl11opt_storageIbLb0ELb0EE8getValueEv(ptr noundef nonnull align 8 dereferenceable(24) %3)
  ret i1 %4
}

; Function Attrs: mustprogress nounwind uwtable
define dso_local { i32, ptr } @_ZN4llvm10sampleprof25SampleProfileReaderBinary8readImplEv(ptr noundef nonnull align 8 dereferenceable(296) %0) unnamed_addr #1 align 2 {
  %2 = alloca %"class.std::error_code", align 8
  %3 = alloca ptr, align 8
  store ptr %0, ptr %3, align 8
  %4 = load ptr, ptr %3, align 8
  %5 = call noundef zeroext i1 @_ZNK4llvm2cl11opt_storageIbLb0ELb0EEcvbEv(ptr noundef nonnull align 8 dereferenceable(24) getelementptr inbounds (i8, ptr @_ZL23ProfileIsFSDisciminator, i64 128))
  %6 = getelementptr inbounds nuw %"class.llvm::sampleprof::SampleProfileReader", ptr %4, i32 0, i32 13
  %7 = zext i1 %5 to i8
  store i8 %7, ptr %6, align 8
  %8 = getelementptr inbounds nuw %"class.llvm::sampleprof::SampleProfileReader", ptr %4, i32 0, i32 13
  %9 = load i8, ptr %8, align 8
  %10 = trunc i8 %9 to i1
  %11 = zext i1 %10 to i8
  store i8 %11, ptr @_ZN4llvm10sampleprof15FunctionSamples11ProfileIsFSE, align 1
  br label %12

12:                                               ; preds = %28, %1
  %13 = getelementptr inbounds nuw %"class.llvm::sampleprof::SampleProfileReaderBinary", ptr %4, i32 0, i32 1
  %14 = load ptr, ptr %13, align 8
  %15 = getelementptr inbounds nuw %"class.llvm::sampleprof::SampleProfileReaderBinary", ptr %4, i32 0, i32 2
  %16 = load ptr, ptr %15, align 8
  %17 = icmp ult ptr %14, %16
  br i1 %17, label %18, label %29

18:                                               ; preds = %12
  %19 = getelementptr inbounds nuw %"class.llvm::sampleprof::SampleProfileReaderBinary", ptr %4, i32 0, i32 1
  %20 = load ptr, ptr %19, align 8
  %21 = call { i32, ptr } @_ZN4llvm10sampleprof25SampleProfileReaderBinary15readFuncProfileEPKh(ptr noundef nonnull align 8 dereferenceable(296) %4, ptr noundef %20)
  %22 = getelementptr inbounds nuw { i32, ptr }, ptr %2, i32 0, i32 0
  %23 = extractvalue { i32, ptr } %21, 0
  store i32 %23, ptr %22, align 8
  %24 = getelementptr inbounds nuw { i32, ptr }, ptr %2, i32 0, i32 1
  %25 = extractvalue { i32, ptr } %21, 1
  store ptr %25, ptr %24, align 8
  %26 = call noundef zeroext i1 @_ZNKSt10error_codecvbEv(ptr noundef nonnull align 8 dereferenceable(16) %2) #2
  br i1 %26, label %27, label %28

27:                                               ; preds = %18
  br label %30

28:                                               ; preds = %18
  br label %12, !llvm.loop !14

29:                                               ; preds = %12
  call void @_ZNSt10error_codeC2IN4llvm16sampleprof_errorEvEET_(ptr noundef nonnull align 8 dereferenceable(16) %2, i32 noundef 0) #2
  br label %30

30:                                               ; preds = %29, %27
  %31 = load { i32, ptr }, ptr %2, align 8
  ret { i32, ptr } %31
}