; Function Attrs: mustprogress nounwind uwtable
define dso_local { i32, ptr } @_ZN4llvm10sampleprof25SampleProfileReaderBinary8readImplEv(ptr noundef nonnull align 8 dereferenceable(296) %0) unnamed_addr #0 align 2 {
  %2 = load i8, ptr getelementptr inbounds (i8, ptr @_ZL23ProfileIsFSDisciminator, i64 128), align 8
  %3 = getelementptr inbounds nuw i8, ptr %0, i64 176
  %4 = and i8 %2, 1
  store i8 %4, ptr %3, align 8
  store i8 %4, ptr @_ZN4llvm10sampleprof15FunctionSamples11ProfileIsFSE, align 1
  %5 = getelementptr inbounds nuw i8, ptr %0, i64 200
  %6 = getelementptr inbounds nuw i8, ptr %0, i64 208
  %7 = getelementptr inbounds nuw i8, ptr %0, i64 8
  br label %8

8:                                                ; preds = %12, %1
  %9 = load ptr, ptr %5, align 8
  %10 = load ptr, ptr %6, align 8
  %11 = icmp ult ptr %9, %10
  br i1 %11, label %12, label %15

12:                                               ; preds = %8
  %13 = tail call { i32, ptr } @_ZN4llvm10sampleprof25SampleProfileReaderBinary15readFuncProfileEPKhRNS0_16SampleProfileMapE(ptr noundef nonnull align 8 dereferenceable(296) %0, ptr noundef %9, ptr noundef nonnull align 8 dereferenceable(56) %7)
  %14 = extractvalue { i32, ptr } %13, 0
  %.not = icmp eq i32 %14, 0
  br i1 %.not, label %8, label %.loopexit, !llvm.loop !96

15:                                               ; preds = %8
  %16 = tail call noundef nonnull align 8 dereferenceable(8) ptr @_ZN4llvm19sampleprof_categoryEv() #24
  br label %18

.loopexit:                                        ; preds = %12
  %17 = extractvalue { i32, ptr } %13, 1
  br label %18

18:                                               ; preds = %.loopexit, %15
  %.sroa.4.0 = phi ptr [ %16, %15 ], [ %17, %.loopexit ]
  %.sroa.0.0 = phi i32 [ 0, %15 ], [ %14, %.loopexit ]
  %.fca.0.insert = insertvalue { i32, ptr } poison, i32 %.sroa.0.0, 0
  %.fca.1.insert = insertvalue { i32, ptr } %.fca.0.insert, ptr %.sroa.4.0, 1
  ret { i32, ptr } %.fca.1.insert
}